Certificate:
    Data:
        Version: 3 (0x2)
        Serial Number:
            cf:17:7a:a1:2c:3e:9c:ba:de:27:0f:72:65:4c:f8:63
        Signature Algorithm: sha256WithRSAEncryption
        Issuer: CN=ca
        Validity
            Not Before: Feb 25 08:12:39 2025 GMT
            Not After : May 31 08:12:39 2027 GMT
        Subject: CN=client
        Subject Public Key Info:
            Public Key Algorithm: rsaEncryption
                Public-Key: (2048 bit)
                Modulus:
                    00:c3:17:36:37:c9:59:c9:f6:d4:4a:5d:0f:b5:b9:
                    96:fe:fd:75:6d:fe:bb:69:22:9e:3b:e4:84:dc:b8:
                    00:c2:1c:ce:3f:85:50:49:61:54:50:d0:6b:6e:33:
                    bf:8b:b2:6c:fe:37:84:87:39:24:fe:80:31:75:51:
                    68:4a:24:a2:08:5c:6c:b0:d4:c1:3a:e1:7a:2e:db:
                    5c:6f:f8:49:85:a5:88:6a:a8:3e:dc:2c:2b:09:7f:
                    f7:7c:8d:c0:c1:ac:f6:4b:94:56:d8:aa:14:b0:89:
                    c8:c0:85:76:d5:e1:fc:9c:f7:68:6e:cc:5b:11:46:
                    cd:89:ce:44:1a:d4:43:9e:d2:40:98:3c:a2:1e:bb:
                    57:e2:8c:9a:4e:05:19:44:27:05:73:80:2b:ab:fe:
                    62:ec:67:5c:2f:f9:67:e5:8e:29:e3:ba:64:a0:4e:
                    3c:e4:ea:29:45:95:86:52:68:cb:7f:96:5b:d9:aa:
                    59:0c:98:4e:87:f5:55:d7:03:b0:74:ca:d8:69:bb:
                    3e:7f:d4:ac:68:62:43:45:43:ba:6c:9a:58:80:56:
                    9e:07:c5:42:22:1a:db:37:11:64:ff:22:8f:fe:e3:
                    b9:09:e6:9a:59:10:3d:8d:ef:b8:95:9b:e8:e5:73:
                    7b:ff:de:e6:b3:5f:a8:ab:a5:dc:fd:51:7f:19:99:
                    b9:1f
                Exponent: 65537 (0x10001)
        X509v3 extensions:
            X509v3 Basic Constraints: 
                CA:FALSE
            X509v3 Subject Key Identifier: 
                6C:C7:02:B0:AC:34:E1:27:B4:3A:0E:1E:73:C8:C8:8D:C5:FB:73:CA
            X509v3 Authority Key Identifier: 
                keyid:6B:F0:07:28:21:A2:74:5E:FE:D8:7D:EF:D1:9D:19:B6:FE:C0:2D:FA
                DirName:/CN=ca
                serial:64:75:D5:35:FB:72:4D:A3:AC:D0:64:A7:BF:72:32:98:37:B0:CA:3F
            X509v3 Extended Key Usage: 
                TLS Web Client Authentication
            X509v3 Key Usage: 
                Digital Signature
    Signature Algorithm: sha256WithRSAEncryption
    Signature Value:
        97:dc:e3:22:34:f3:40:a8:29:40:0e:a8:db:c0:b6:f7:2b:bf:
        98:67:9a:94:a8:75:6a:96:35:ce:00:f6:98:41:25:c2:b0:37:
        8d:51:eb:a1:54:a7:2a:a5:90:6b:a6:f2:a1:e7:cd:a9:85:50:
        b4:4a:1f:f5:ec:9d:2b:96:06:c9:da:97:32:44:d1:74:e9:96:
        d7:18:7f:2f:29:71:7e:b6:aa:4b:46:b6:0a:42:6d:4d:df:a5:
        6f:27:1c:a3:5f:5c:07:fa:51:5d:07:a8:f9:d8:e7:40:e7:12:
        b2:a6:64:97:3c:82:e3:71:58:fe:39:a2:1b:4b:ff:4c:1d:37:
        f0:c2:4a:b8:e8:d6:89:67:98:9b:ab:4e:0e:af:d9:6f:d3:6b:
        6c:2d:60:a2:af:86:e8:20:de:01:98:82:33:b6:90:cd:2b:dc:
        bf:57:47:da:e8:bf:b8:56:c0:a4:18:88:12:ca:a6:a1:8d:44:
        a0:d4:80:11:5a:f2:3e:5c:7d:31:cd:5e:71:fc:2c:93:e0:36:
        a1:79:ab:24:78:ae:cd:76:b2:9e:45:c0:eb:48:6a:11:b9:a1:
        33:e2:ed:f7:5c:c3:9b:12:50:e5:1e:d6:84:be:1f:e0:97:6b:
        5e:dc:80:85:20:57:3c:5b:a3:2d:44:f9:94:14:51:57:0c:f4:
        ae:f5:2b:81
-----BEGIN CERTIFICATE-----
MIIDQzCCAiugAwIBAgIRAM8XeqEsPpy63icPcmVM+GMwDQYJKoZIhvcNAQELBQAw
DTELMAkGA1UEAwwCY2EwHhcNMjUwMjI1MDgxMjM5WhcNMjcwNTMxMDgxMjM5WjAR
MQ8wDQYDVQQDDAZjbGllbnQwggEiMA0GCSqGSIb3DQEBAQUAA4IBDwAwggEKAoIB
AQDDFzY3yVnJ9tRKXQ+1uZb+/XVt/rtpIp475ITcuADCHM4/hVBJYVRQ0GtuM7+L
smz+N4SHOST+gDF1UWhKJKIIXGyw1ME64Xou21xv+EmFpYhqqD7cLCsJf/d8jcDB
rPZLlFbYqhSwicjAhXbV4fyc92huzFsRRs2JzkQa1EOe0kCYPKIeu1fijJpOBRlE
JwVzgCur/mLsZ1wv+WfljinjumSgTjzk6ilFlYZSaMt/llvZqlkMmE6H9VXXA7B0
ythpuz5/1KxoYkNFQ7psmliAVp4HxUIiGts3EWT/Io/+47kJ5ppZED2N77iVm+jl
c3v/3uazX6irpdz9UX8ZmbkfAgMBAAGjgZkwgZYwCQYDVR0TBAIwADAdBgNVHQ4E
FgQUbMcCsKw04Se0Og4ec8jIjcX7c8owSAYDVR0jBEEwP4AUa/AHKCGidF7+2H3v
0Z0Ztv7ALfqhEaQPMA0xCzAJBgNVBAMMAmNhghRkddU1+3JNo6zQZKe/cjKYN7DK
PzATBgNVHSUEDDAKBggrBgEFBQcDAjALBgNVHQ8EBAMCB4AwDQYJKoZIhvcNAQEL
BQADggEBAJfc4yI080CoKUAOqNvAtvcrv5hnmpSodWqWNc4A9phBJcKwN41R66FU
pyqlkGum8qHnzamFULRKH/XsnSuWBsnalzJE0XTpltcYfy8pcX62qktGtgpCbU3f
pW8nHKNfXAf6UV0HqPnY50DnErKmZJc8guNxWP45ohtL/0wdN/DCSrjo1olnmJur
Tg6v2W/Ta2wtYKKvhugg3gGYgjO2kM0r3L9XR9rov7hWwKQYiBLKpqGNRKDUgBFa
8j5cfTHNXnH8LJPgNqF5qyR4rs12sp5FwOtIahG5oTPi7fdcw5sSUOUe1oS+H+CX
a17cgIUgVzxboy1E+ZQUUVcM9K71K4E=
-----END CERTIFICATE-----
